target datalayout = "e-m:e-p270:32:32-p271:32:32-p272:64:64-i64:64-i128:128-f80:128-n8:16:32:64-S128"
target triple = "x86_64-pc-linux-gnu"

@rdt_handle = internal global ptr null, align 8
@proto_rdt = internal global i32 0, align 4
@.str.133 = private unnamed_addr constant [20 x i8] c"Real Data Transport\00", align 1
@.str.134 = private unnamed_addr constant [4 x i8] c"RDT\00", align 1
@.str.135 = private unnamed_addr constant [4 x i8] c"rdt\00", align 1
@.str.136 = private unnamed_addr constant [16 x i8] c"show_setup_info\00", align 1
@.str.137 = private unnamed_addr constant [30 x i8] c"Show stream setup information\00", align 1
@.str.138 = private unnamed_addr constant [84 x i8] c"Where available, show which protocol and frame caused this RDT stream to be created\00", align 1
@global_rdt_show_setup_info = internal global i8 1, align 1
@.str.139 = private unnamed_addr constant [18 x i8] c"register_udp_port\00", align 1

; Function Attrs: null_pointer_is_valid sspstrong uwtable
define hidden void @proto_register_rdt() #0 {
  %1 = alloca ptr, align 8
  %2 = alloca ptr, align 8
  call void @llvm.lifetime.start.p0(i64 8, ptr %1) #5
  call void @llvm.lifetime.start.p0(i64 8, ptr %2) #5
  %3 = call i32 @proto_register_protocol(ptr noundef @.str.133, ptr noundef @.str.134, ptr noundef @.str.135)
  store i32 %3, ptr @proto_rdt, align 4
  %4 = load i32, ptr @proto_rdt, align 4
  call void @proto_register_field_array(i32 noundef %4, ptr noundef @proto_register_rdt.hf, i32 noundef 65)
  call void @proto_register_subtree_array(ptr noundef @proto_register_rdt.ett, i32 noundef 18)
  %5 = load i32, ptr @proto_rdt, align 4
  %6 = call ptr @expert_register_protocol(i32 noundef %5)
  store ptr %6, ptr %2, align 8
  %7 = load ptr, ptr %2, align 8
  call void @expert_register_field_array(ptr noundef %7, ptr noundef @proto_register_rdt.ei, i32 noundef 1)
  %8 = load i32, ptr @proto_rdt, align 4
  %9 = call ptr @register_dissector(ptr noundef @.str.135, ptr noundef @dissect_rdt, i32 noundef %8)
  store ptr %9, ptr @rdt_handle, align 8
  %10 = load i32, ptr @proto_rdt, align 4
  %11 = call ptr @prefs_register_protocol(i32 noundef %10, ptr noundef null)
  store ptr %11, ptr %1, align 8
  %12 = load ptr, ptr %1, align 8
  call void @prefs_register_bool_preference(ptr noundef %12, ptr noundef @.str.136, ptr noundef @.str.137, ptr noundef @.str.138, ptr noundef @global_rdt_show_setup_info)
  %13 = load ptr, ptr %1, align 8
  call void @prefs_register_obsolete_preference(ptr noundef %13, ptr noundef @.str.139)
  call void @llvm.lifetime.end.p0(i64 8, ptr %2) #5
  call void @llvm.lifetime.end.p0(i64 8, ptr %1) #5
  ret void
}