; Function Attrs: null_pointer_is_valid sspstrong uwtable
define hidden void @proto_register_rdt() local_unnamed_addr #0 {
  %1 = tail call i32 @proto_register_protocol(ptr noundef nonnull @.str.133, ptr noundef nonnull @.str.134, ptr noundef nonnull @.str.135)
  store i32 %1, ptr @proto_rdt, align 4
  tail call void @proto_register_field_array(i32 noundef %1, ptr noundef nonnull @proto_register_rdt.hf, i32 noundef 65)
  tail call void @proto_register_subtree_array(ptr noundef nonnull @proto_register_rdt.ett, i32 noundef 18)
  %2 = load i32, ptr @proto_rdt, align 4
  %3 = tail call ptr @expert_register_protocol(i32 noundef %2)
  tail call void @expert_register_field_array(ptr noundef %3, ptr noundef nonnull @proto_register_rdt.ei, i32 noundef 1)
  %4 = load i32, ptr @proto_rdt, align 4
  %5 = tail call ptr @register_dissector(ptr noundef nonnull @.str.135, ptr noundef nonnull @dissect_rdt, i32 noundef %4)
  store ptr %5, ptr @rdt_handle, align 8
  %6 = load i32, ptr @proto_rdt, align 4
  %7 = tail call ptr @prefs_register_protocol(i32 noundef %6, ptr noundef null)
  tail call void @prefs_register_bool_preference(ptr noundef %7, ptr noundef nonnull @.str.136, ptr noundef nonnull @.str.137, ptr noundef nonnull @.str.138, ptr noundef nonnull @global_rdt_show_setup_info)
  tail call void @prefs_register_obsolete_preference(ptr noundef %7, ptr noundef nonnull @.str.139)
  ret void
}